; Function Attrs: mustprogress uwtable
define void @_ZN7rocksdb12EventHelpers29NotifyBlobFileCreationStartedERKSt6vectorISt10shared_ptrINS_13EventListenerEESaIS4_EERKNSt7__cxx1112basic_stringIcSt11char_traitsIcESaIcEEESG_SG_iNS_22BlobFileCreationReasonE(ptr noundef nonnull readonly align 8 captures(none) dereferenceable(24) %0, ptr noundef nonnull align 8 dereferenceable(32) %1, ptr noundef nonnull align 8 dereferenceable(32) %2, ptr noundef nonnull align 8 dereferenceable(32) %3, i32 noundef %4, i32 noundef %5) local_unnamed_addr #4 align 2 personality ptr @__gxx_personality_v0 {
  %7 = alloca %"struct.rocksdb::BlobFileCreationBriefInfo", align 8
  %8 = load ptr, ptr %0, align 8, !tbaa !108
  %9 = getelementptr inbounds nuw i8, ptr %0, i64 8
  %10 = load ptr, ptr %9, align 8, !tbaa !108
  %11 = icmp eq ptr %8, %10
  br i1 %11, label %50, label %12

12:                                               ; preds = %6
  call void @llvm.lifetime.start.p0(i64 104, ptr nonnull %7) #25
  call void @_ZN7rocksdb21FileCreationBriefInfoC2ERKNSt7__cxx1112basic_stringIcSt11char_traitsIcESaIcEEES8_S8_i(ptr noundef nonnull align 8 dereferenceable(104) %7, ptr noundef nonnull align 8 dereferenceable(32) %1, ptr noundef nonnull align 8 dereferenceable(32) %2, ptr noundef nonnull align 8 dereferenceable(32) %3, i32 noundef %4)
  %13 = getelementptr inbounds nuw i8, ptr %7, i64 100
  store i32 %5, ptr %13, align 4, !tbaa !160
  %14 = load ptr, ptr %0, align 8, !tbaa !108
  %15 = load ptr, ptr %9, align 8, !tbaa !108
  %.not14 = icmp eq ptr %14, %15
  br i1 %.not14, label %._crit_edge, label %.lr.ph

._crit_edge:                                      ; preds = %46, %12
  %16 = getelementptr inbounds nuw i8, ptr %7, i64 64
  %17 = load ptr, ptr %16, align 8, !tbaa !11
  %18 = getelementptr inbounds nuw i8, ptr %7, i64 80
  %19 = icmp eq ptr %17, %18
  br i1 %19, label %_ZNKSt7__cxx1112basic_stringIcSt11char_traitsIcESaIcEE11_M_is_localEv.exit.thread.i.i.i, label %_ZNKSt7__cxx1112basic_stringIcSt11char_traitsIcESaIcEE11_M_is_localEv.exit.i.i.i

_ZNKSt7__cxx1112basic_stringIcSt11char_traitsIcESaIcEE11_M_is_localEv.exit.thread.i.i.i: ; preds = %._crit_edge
  %20 = getelementptr inbounds nuw i8, ptr %7, i64 72
  %21 = load i64, ptr %20, align 8, !tbaa !16
  %22 = icmp ult i64 %21, 16
  call void @llvm.assume(i1 %22)
  br label %_ZNSt7__cxx1112basic_stringIcSt11char_traitsIcESaIcEED2Ev.exit.i

_ZNKSt7__cxx1112basic_stringIcSt11char_traitsIcESaIcEE11_M_is_localEv.exit.i.i.i: ; preds = %._crit_edge
  %23 = load i64, ptr %18, align 8, !tbaa !17
  %24 = add i64 %23, 1
  call void @_ZdlPvm(ptr noundef %17, i64 noundef %24) #24
  br label %_ZNSt7__cxx1112basic_stringIcSt11char_traitsIcESaIcEED2Ev.exit.i

_ZNSt7__cxx1112basic_stringIcSt11char_traitsIcESaIcEED2Ev.exit.i: ; preds = %_ZNKSt7__cxx1112basic_stringIcSt11char_traitsIcESaIcEE11_M_is_localEv.exit.i.i.i, %_ZNKSt7__cxx1112basic_stringIcSt11char_traitsIcESaIcEE11_M_is_localEv.exit.thread.i.i.i
  %25 = getelementptr inbounds nuw i8, ptr %7, i64 32
  %26 = load ptr, ptr %25, align 8, !tbaa !11
  %27 = getelementptr inbounds nuw i8, ptr %7, i64 48
  %28 = icmp eq ptr %26, %27
  br i1 %28, label %_ZNKSt7__cxx1112basic_stringIcSt11char_traitsIcESaIcEE11_M_is_localEv.exit.thread.i.i2.i, label %_ZNKSt7__cxx1112basic_stringIcSt11char_traitsIcESaIcEE11_M_is_localEv.exit.i.i1.i

_ZNKSt7__cxx1112basic_stringIcSt11char_traitsIcESaIcEE11_M_is_localEv.exit.thread.i.i2.i: ; preds = %_ZNSt7__cxx1112basic_stringIcSt11char_traitsIcESaIcEED2Ev.exit.i
  %29 = getelementptr inbounds nuw i8, ptr %7, i64 40
  %30 = load i64, ptr %29, align 8, !tbaa !16
  %31 = icmp ult i64 %30, 16
  call void @llvm.assume(i1 %31)
  br label %_ZNSt7__cxx1112basic_stringIcSt11char_traitsIcESaIcEED2Ev.exit3.i

_ZNKSt7__cxx1112basic_stringIcSt11char_traitsIcESaIcEE11_M_is_localEv.exit.i.i1.i: ; preds = %_ZNSt7__cxx1112basic_stringIcSt11char_traitsIcESaIcEED2Ev.exit.i
  %32 = load i64, ptr %27, align 8, !tbaa !17
  %33 = add i64 %32, 1
  call void @_ZdlPvm(ptr noundef %26, i64 noundef %33) #24
  br label %_ZNSt7__cxx1112basic_stringIcSt11char_traitsIcESaIcEED2Ev.exit3.i

_ZNSt7__cxx1112basic_stringIcSt11char_traitsIcESaIcEED2Ev.exit3.i: ; preds = %_ZNKSt7__cxx1112basic_stringIcSt11char_traitsIcESaIcEE11_M_is_localEv.exit.i.i1.i, %_ZNKSt7__cxx1112basic_stringIcSt11char_traitsIcESaIcEE11_M_is_localEv.exit.thread.i.i2.i
  %34 = load ptr, ptr %7, align 8, !tbaa !11
  %35 = getelementptr inbounds nuw i8, ptr %7, i64 16
  %36 = icmp eq ptr %34, %35
  br i1 %36, label %_ZNKSt7__cxx1112basic_stringIcSt11char_traitsIcESaIcEE11_M_is_localEv.exit.thread.i.i5.i, label %_ZNKSt7__cxx1112basic_stringIcSt11char_traitsIcESaIcEE11_M_is_localEv.exit.i.i4.i

_ZNKSt7__cxx1112basic_stringIcSt11char_traitsIcESaIcEE11_M_is_localEv.exit.thread.i.i5.i: ; preds = %_ZNSt7__cxx1112basic_stringIcSt11char_traitsIcESaIcEED2Ev.exit3.i
  %37 = getelementptr inbounds nuw i8, ptr %7, i64 8
  %38 = load i64, ptr %37, align 8, !tbaa !16
  %39 = icmp ult i64 %38, 16
  call void @llvm.assume(i1 %39)
  br label %_ZN7rocksdb21FileCreationBriefInfoD2Ev.exit

_ZNKSt7__cxx1112basic_stringIcSt11char_traitsIcESaIcEE11_M_is_localEv.exit.i.i4.i: ; preds = %_ZNSt7__cxx1112basic_stringIcSt11char_traitsIcESaIcEED2Ev.exit3.i
  %40 = load i64, ptr %35, align 8, !tbaa !17
  %41 = add i64 %40, 1
  call void @_ZdlPvm(ptr noundef %34, i64 noundef %41) #24
  br label %_ZN7rocksdb21FileCreationBriefInfoD2Ev.exit

_ZN7rocksdb21FileCreationBriefInfoD2Ev.exit:      ; preds = %_ZNKSt7__cxx1112basic_stringIcSt11char_traitsIcESaIcEE11_M_is_localEv.exit.thread.i.i5.i, %_ZNKSt7__cxx1112basic_stringIcSt11char_traitsIcESaIcEE11_M_is_localEv.exit.i.i4.i
  call void @llvm.lifetime.end.p0(i64 104, ptr nonnull %7) #25
  br label %50

.lr.ph:                                           ; preds = %12, %46
  %.sroa.011.015 = phi ptr [ %47, %46 ], [ %14, %12 ]
  %42 = load ptr, ptr %.sroa.011.015, align 8, !tbaa !32
  %43 = load ptr, ptr %42, align 8, !tbaa !82
  %44 = getelementptr inbounds nuw i8, ptr %43, i64 360
  %45 = load ptr, ptr %44, align 8
  invoke void %45(ptr noundef nonnull align 8 dereferenceable(32) %42, ptr noundef nonnull align 8 dereferenceable(104) %7)
          to label %46 unwind label %48

46:                                               ; preds = %.lr.ph
  %47 = getelementptr inbounds nuw i8, ptr %.sroa.011.015, i64 16
  %.not = icmp eq ptr %47, %15
  br i1 %.not, label %._crit_edge, label %.lr.ph

48:                                               ; preds = %.lr.ph
  %49 = landingpad { ptr, i32 }
          cleanup
  call void @_ZN7rocksdb21FileCreationBriefInfoD2Ev(ptr noundef nonnull align 8 dereferenceable(104) %7) #25
  call void @llvm.lifetime.end.p0(i64 104, ptr nonnull %7) #25
  resume { ptr, i32 } %49

50:                                               ; preds = %6, %_ZN7rocksdb21FileCreationBriefInfoD2Ev.exit
  ret void
}